target datalayout = "e-m:e-p270:32:32-p271:32:32-p272:64:64-i64:64-i128:128-f80:128-n8:16:32:64-S128"
target triple = "x86_64-pc-linux-gnu"

@hf_zbncp_data_dst_ieee_addr = internal global i32 0, align 4
@hf_zbncp_data_dst_nwk_addr = internal global i32 0, align 4

; Function Attrs: null_pointer_is_valid sspstrong uwtable
define internal void @dissect_zbncp_dst_addrs(ptr noundef %0, ptr noundef %1, i32 noundef %2, ptr noundef %3) #0 {
  %5 = alloca ptr, align 8
  %6 = alloca ptr, align 8
  %7 = alloca i32, align 4
  %8 = alloca ptr, align 8
  %9 = alloca i8, align 1
  store ptr %0, ptr %5, align 8
  store ptr %1, ptr %6, align 8
  store i32 %2, ptr %7, align 4
  store ptr %3, ptr %8, align 8
  call void @llvm.lifetime.start.p0(i64 1, ptr %9) #8
  %10 = load ptr, ptr %6, align 8
  %11 = load i32, ptr %7, align 4
  %12 = call zeroext i8 @tvb_get_uint8(ptr noundef %10, i32 noundef %11)
  store i8 %12, ptr %9, align 1
  %13 = load i8, ptr %9, align 1
  %14 = zext i8 %13 to i32
  %15 = icmp eq i32 %14, 0
  br i1 %15, label %24, label %16

16:                                               ; preds = %4
  %17 = load i8, ptr %9, align 1
  %18 = zext i8 %17 to i32
  %19 = icmp eq i32 %18, 3
  br i1 %19, label %24, label %20

20:                                               ; preds = %16
  %21 = load i8, ptr %9, align 1
  %22 = zext i8 %21 to i32
  %23 = icmp eq i32 %22, 4
  br i1 %23, label %24, label %34

24:                                               ; preds = %20, %16, %4
  %25 = load ptr, ptr %5, align 8
  %26 = load i32, ptr @hf_zbncp_data_dst_ieee_addr, align 4
  %27 = load ptr, ptr %6, align 8
  %28 = load ptr, ptr %8, align 8
  %29 = load i32, ptr %28, align 4
  %30 = call ptr @proto_tree_add_item(ptr noundef %25, i32 noundef %26, ptr noundef %27, i32 noundef %29, i32 noundef 8, i32 noundef 0)
  %31 = load ptr, ptr %8, align 8
  %32 = load i32, ptr %31, align 4
  %33 = add i32 %32, 8
  store i32 %33, ptr %31, align 4
  br label %53

34:                                               ; preds = %20
  %35 = load i8, ptr %9, align 1
  %36 = zext i8 %35 to i32
  %37 = icmp eq i32 %36, 1
  br i1 %37, label %42, label %38

38:                                               ; preds = %34
  %39 = load i8, ptr %9, align 1
  %40 = zext i8 %39 to i32
  %41 = icmp eq i32 %40, 2
  br i1 %41, label %42, label %52

42:                                               ; preds = %38, %34
  %43 = load ptr, ptr %5, align 8
  %44 = load i32, ptr @hf_zbncp_data_dst_nwk_addr, align 4
  %45 = load ptr, ptr %6, align 8
  %46 = load ptr, ptr %8, align 8
  %47 = load i32, ptr %46, align 4
  %48 = call ptr @proto_tree_add_item(ptr noundef %43, i32 noundef %44, ptr noundef %45, i32 noundef %47, i32 noundef 2, i32 noundef -2147483648)
  %49 = load ptr, ptr %8, align 8
  %50 = load i32, ptr %49, align 4
  %51 = add i32 %50, 8
  store i32 %51, ptr %49, align 4
  br label %52

52:                                               ; preds = %42, %38
  br label %53

53:                                               ; preds = %52, %24
  call void @llvm.lifetime.end.p0(i64 1, ptr %9) #8
  ret void
}