; Function Attrs: null_pointer_is_valid sspstrong uwtable
define internal fastcc void @dissect_zbncp_dst_addrs(ptr noundef %0, ptr noundef %1, i32 noundef %2, ptr noundef captures(none) %3) unnamed_addr #0 {
  %5 = tail call zeroext i8 @tvb_get_uint8(ptr noundef %1, i32 noundef %2)
  switch i8 %5, label %10 [
    i8 4, label %6
    i8 3, label %6
    i8 0, label %6
  ]

6:                                                ; preds = %4, %4, %4
  %7 = load i32, ptr @hf_zbncp_data_dst_ieee_addr, align 4
  %8 = load i32, ptr %3, align 4
  %9 = tail call ptr @proto_tree_add_item(ptr noundef %0, i32 noundef %7, ptr noundef %1, i32 noundef %8, i32 noundef 8, i32 noundef 0)
  br label %.sink.split

10:                                               ; preds = %4
  %11 = add i8 %5, -1
  %or.cond8 = icmp ult i8 %11, 2
  br i1 %or.cond8, label %12, label %18

12:                                               ; preds = %10
  %13 = load i32, ptr @hf_zbncp_data_dst_nwk_addr, align 4
  %14 = load i32, ptr %3, align 4
  %15 = tail call ptr @proto_tree_add_item(ptr noundef %0, i32 noundef %13, ptr noundef %1, i32 noundef %14, i32 noundef 2, i32 noundef -2147483648)
  br label %.sink.split

.sink.split:                                      ; preds = %6, %12
  %16 = load i32, ptr %3, align 4
  %17 = add i32 %16, 8
  store i32 %17, ptr %3, align 4
  br label %18

18:                                               ; preds = %.sink.split, %10
  ret void
}